; Function Attrs: mustprogress uwtable
define noundef nonnull ptr @_ZN8nanobind6detail8obj_op_2EP7_objectS2_PFS2_S2_S2_E(ptr noundef %0, ptr noundef %1, ptr noundef readonly captures(none) %2) local_unnamed_addr #15 {
  %4 = tail call noundef ptr %2(ptr noundef %0, ptr noundef %1)
  %.not = icmp eq ptr %4, null
  br i1 %.not, label %5, label %6

5:                                                ; preds = %3
  tail call void @_ZN8nanobind6detail18raise_python_errorEv() #28
  unreachable

6:                                                ; preds = %3
  ret ptr %4
}